; Function Attrs: mustprogress uwtable
define noundef i32 @_ZNK6casadi6MXNode10sp_reverseEPPyS2_PxS1_(ptr noundef nonnull align 8 dereferenceable(64) %0, ptr nocapture noundef readonly %1, ptr nocapture noundef readonly %2, ptr nocapture readnone %3, ptr nocapture readnone %4) unnamed_addr #3 align 2 {
  %6 = load ptr, ptr %0, align 8
  %7 = getelementptr inbounds i8, ptr %6, i64 336
  %8 = load ptr, ptr %7, align 8
  %9 = tail call noundef i64 %8(ptr noundef nonnull align 8 dereferenceable(64) %0)
  %10 = icmp sgt i64 %9, 0
  br i1 %10, label %.lr.ph33, label %.preheader

.preheader:                                       ; preds = %._crit_edge, %5
  %.022.lcssa = phi i64 [ 0, %5 ], [ %.1.lcssa, %._crit_edge ]
  %11 = getelementptr inbounds i8, ptr %0, i64 32
  %12 = getelementptr inbounds i8, ptr %0, i64 40
  %13 = load ptr, ptr %12, align 8
  %14 = load ptr, ptr %11, align 8
  %15 = ptrtoint ptr %13 to i64
  %16 = ptrtoint ptr %14 to i64
  %17 = sub i64 %15, %16
  %18 = icmp sgt i64 %17, 0
  br i1 %18, label %.lr.ph44, label %._crit_edge45

.lr.ph33:                                         ; preds = %5, %._crit_edge
  %.02231 = phi i64 [ %.1.lcssa, %._crit_edge ], [ 0, %5 ]
  %.02530 = phi i64 [ %37, %._crit_edge ], [ 0, %5 ]
  %19 = getelementptr inbounds ptr, ptr %2, i64 %.02530
  %20 = load ptr, ptr %19, align 8
  %21 = load ptr, ptr %0, align 8
  %22 = getelementptr inbounds i8, ptr %21, i64 352
  %23 = load ptr, ptr %22, align 8
  %24 = tail call noundef nonnull align 8 dereferenceable(8) ptr %23(ptr noundef nonnull align 8 dereferenceable(64) %0, i64 noundef %.02530)
  %25 = tail call noundef i64 @_ZNK6casadi8Sparsity3nnzEv(ptr noundef nonnull align 8 dereferenceable(8) %24)
  %26 = icmp sgt i64 %25, 0
  br i1 %26, label %.lr.ph, label %._crit_edge

.lr.ph:                                           ; preds = %.lr.ph33, %.lr.ph
  %.129 = phi i64 [ %29, %.lr.ph ], [ %.02231, %.lr.ph33 ]
  %.02428 = phi i64 [ %30, %.lr.ph ], [ 0, %.lr.ph33 ]
  %27 = getelementptr inbounds i64, ptr %20, i64 %.02428
  %28 = load i64, ptr %27, align 8
  %29 = or i64 %28, %.129
  store i64 0, ptr %27, align 8
  %30 = add nuw nsw i64 %.02428, 1
  %31 = load ptr, ptr %0, align 8
  %32 = getelementptr inbounds i8, ptr %31, i64 352
  %33 = load ptr, ptr %32, align 8
  %34 = tail call noundef nonnull align 8 dereferenceable(8) ptr %33(ptr noundef nonnull align 8 dereferenceable(64) %0, i64 noundef %.02530)
  %35 = tail call noundef i64 @_ZNK6casadi8Sparsity3nnzEv(ptr noundef nonnull align 8 dereferenceable(8) %34)
  %36 = icmp slt i64 %30, %35
  br i1 %36, label %.lr.ph, label %._crit_edge, !llvm.loop !86

._crit_edge:                                      ; preds = %.lr.ph, %.lr.ph33
  %.1.lcssa = phi i64 [ %.02231, %.lr.ph33 ], [ %29, %.lr.ph ]
  %37 = add nuw nsw i64 %.02530, 1
  %38 = load ptr, ptr %0, align 8
  %39 = getelementptr inbounds i8, ptr %38, i64 336
  %40 = load ptr, ptr %39, align 8
  %41 = tail call noundef i64 %40(ptr noundef nonnull align 8 dereferenceable(64) %0)
  %42 = icmp slt i64 %37, %41
  br i1 %42, label %.lr.ph33, label %.preheader, !llvm.loop !87

.lr.ph44:                                         ; preds = %.preheader, %67
  %43 = phi ptr [ %70, %67 ], [ %14, %.preheader ]
  %44 = phi ptr [ %69, %67 ], [ %13, %.preheader ]
  %.02343 = phi i64 [ %68, %67 ], [ 0, %.preheader ]
  %45 = getelementptr inbounds ptr, ptr %1, i64 %.02343
  %46 = load ptr, ptr %45, align 8
  %47 = ptrtoint ptr %44 to i64
  %48 = ptrtoint ptr %43 to i64
  %49 = sub i64 %47, %48
  %50 = ashr exact i64 %49, 3
  %.not.i.i.i35 = icmp ugt i64 %50, %.02343
  br i1 %.not.i.i.i35, label %_ZNK6casadi6MXNode3depEx.exit, label %._crit_edge37

._crit_edge37:                                    ; preds = %.lr.ph44, %56
  %.lcssa = phi i64 [ %66, %56 ], [ %50, %.lr.ph44 ]
  tail call void (ptr, ...) @_ZSt24__throw_out_of_range_fmtPKcz(ptr noundef nonnull @.str.93, i64 noundef %.02343, i64 noundef %.lcssa) #34
  unreachable

_ZNK6casadi6MXNode3depEx.exit:                    ; preds = %.lr.ph44, %56
  %51 = phi ptr [ %62, %56 ], [ %43, %.lr.ph44 ]
  %.036 = phi i64 [ %60, %56 ], [ 0, %.lr.ph44 ]
  %52 = getelementptr inbounds %"class.casadi::MX", ptr %51, i64 %.02343
  %53 = tail call noundef nonnull align 8 dereferenceable(8) ptr @_ZNK6casadi2MX8sparsityEv(ptr noundef nonnull align 8 dereferenceable(8) %52)
  %54 = tail call noundef i64 @_ZNK6casadi8Sparsity3nnzEv(ptr noundef nonnull align 8 dereferenceable(8) %53)
  %55 = icmp slt i64 %.036, %54
  br i1 %55, label %56, label %67

56:                                               ; preds = %_ZNK6casadi6MXNode3depEx.exit
  %57 = getelementptr inbounds i64, ptr %46, i64 %.036
  %58 = load i64, ptr %57, align 8
  %59 = or i64 %58, %.022.lcssa
  store i64 %59, ptr %57, align 8
  %60 = add nuw nsw i64 %.036, 1
  %61 = load ptr, ptr %12, align 8
  %62 = load ptr, ptr %11, align 8
  %63 = ptrtoint ptr %61 to i64
  %64 = ptrtoint ptr %62 to i64
  %65 = sub i64 %63, %64
  %66 = ashr exact i64 %65, 3
  %.not.i.i.i = icmp ugt i64 %66, %.02343
  br i1 %.not.i.i.i, label %_ZNK6casadi6MXNode3depEx.exit, label %._crit_edge37, !llvm.loop !88

67:                                               ; preds = %_ZNK6casadi6MXNode3depEx.exit
  %68 = add nuw nsw i64 %.02343, 1
  %69 = load ptr, ptr %12, align 8
  %70 = load ptr, ptr %11, align 8
  %71 = ptrtoint ptr %69 to i64
  %72 = ptrtoint ptr %70 to i64
  %73 = sub i64 %71, %72
  %74 = ashr exact i64 %73, 3
  %75 = icmp slt i64 %68, %74
  br i1 %75, label %.lr.ph44, label %._crit_edge45, !llvm.loop !89

._crit_edge45:                                    ; preds = %67, %.preheader
  ret i32 0
}